target datalayout = "e-m:e-p270:32:32-p271:32:32-p272:64:64-i64:64-i128:128-f80:128-n8:16:32:64-S128"
target triple = "x86_64-pc-linux-gnu"

%struct.PBKDF2PARAM_st = type { ptr, ptr, ptr, ptr }
%struct.PBE2PARAM_st = type { ptr, ptr }
%struct.SCRYPT_PARAMS_st = type { ptr, ptr, ptr, ptr, ptr }
%struct.PBEPARAM_st = type { ptr, ptr }

@bio_err = external global ptr, align 8
@.str.178 = private unnamed_addr constant [2 x i8] c"\0A\00", align 1
@.str.190 = private unnamed_addr constant [3 x i8] c"%s\00", align 1
@.str.191 = private unnamed_addr constant [27 x i8] c", <unsupported parameters>\00", align 1
@.str.192 = private unnamed_addr constant [9 x i8] c", %s, %s\00", align 1
@.str.193 = private unnamed_addr constant [24 x i8] c", Iteration %ld, PRF %s\00", align 1
@.str.194 = private unnamed_addr constant [73 x i8] c", Salt length: %d, Cost(N): %ld, Block size(r): %ld, Parallelism(p): %ld\00", align 1
@.str.195 = private unnamed_addr constant [16 x i8] c", Iteration %ld\00", align 1

; Function Attrs: nounwind uwtable
define internal i32 @alg_print(ptr noundef %0) #0 {
  %2 = alloca i32, align 4
  %3 = alloca ptr, align 8
  %4 = alloca i32, align 4
  %5 = alloca i32, align 4
  %6 = alloca ptr, align 8
  %7 = alloca ptr, align 8
  %8 = alloca ptr, align 8
  %9 = alloca ptr, align 8
  %10 = alloca i32, align 4
  %11 = alloca ptr, align 8
  %12 = alloca i32, align 4
  %13 = alloca i32, align 4
  %14 = alloca ptr, align 8
  store ptr %0, ptr %3, align 8, !tbaa !39
  call void @llvm.lifetime.start.p0(i64 4, ptr %4) #6
  call void @llvm.lifetime.start.p0(i64 4, ptr %5) #6
  call void @llvm.lifetime.start.p0(i64 8, ptr %6) #6
  call void @llvm.lifetime.start.p0(i64 8, ptr %7) #6
  call void @llvm.lifetime.start.p0(i64 8, ptr %8) #6
  store ptr null, ptr %8, align 8, !tbaa !86
  %15 = load ptr, ptr %3, align 8, !tbaa !39
  call void @X509_ALGOR_get0(ptr noundef %6, ptr noundef %5, ptr noundef %7, ptr noundef %15)
  %16 = load ptr, ptr %6, align 8, !tbaa !33
  %17 = call i32 @OBJ_obj2nid(ptr noundef %16)
  store i32 %17, ptr %4, align 4, !tbaa !4
  %18 = load ptr, ptr @bio_err, align 8, !tbaa !15
  %19 = load i32, ptr %4, align 4, !tbaa !4
  %20 = call ptr @OBJ_nid2ln(i32 noundef %19)
  %21 = call i32 (ptr, ptr, ...) @BIO_printf(ptr noundef %18, ptr noundef @.str.190, ptr noundef %20)
  %22 = load i32, ptr %4, align 4, !tbaa !4
  %23 = icmp eq i32 %22, 161
  br i1 %23, label %24, label %139

24:                                               ; preds = %1
  call void @llvm.lifetime.start.p0(i64 8, ptr %9) #6
  store ptr null, ptr %9, align 8, !tbaa !88
  call void @llvm.lifetime.start.p0(i64 4, ptr %10) #6
  %25 = load i32, ptr %5, align 4, !tbaa !4
  %26 = icmp eq i32 %25, 16
  br i1 %26, label %27, label %31

27:                                               ; preds = %24
  %28 = load ptr, ptr %7, align 8, !tbaa !64
  %29 = call ptr @PBE2PARAM_it()
  %30 = call ptr @ASN1_item_unpack(ptr noundef %28, ptr noundef %29)
  store ptr %30, ptr %9, align 8, !tbaa !88
  br label %31

31:                                               ; preds = %27, %24
  %32 = load ptr, ptr %9, align 8, !tbaa !88
  %33 = icmp eq ptr %32, null
  br i1 %33, label %34, label %37

34:                                               ; preds = %31
  %35 = load ptr, ptr @bio_err, align 8, !tbaa !15
  %36 = call i32 @BIO_puts(ptr noundef %35, ptr noundef @.str.191)
  store i32 2, ptr %13, align 4
  br label %136

37:                                               ; preds = %31
  %38 = load ptr, ptr %9, align 8, !tbaa !88
  %39 = getelementptr inbounds nuw %struct.PBE2PARAM_st, ptr %38, i32 0, i32 0
  %40 = load ptr, ptr %39, align 8, !tbaa !90
  call void @X509_ALGOR_get0(ptr noundef %6, ptr noundef %5, ptr noundef %7, ptr noundef %40)
  %41 = load ptr, ptr %6, align 8, !tbaa !33
  %42 = call i32 @OBJ_obj2nid(ptr noundef %41)
  store i32 %42, ptr %4, align 4, !tbaa !4
  %43 = load ptr, ptr %9, align 8, !tbaa !88
  %44 = getelementptr inbounds nuw %struct.PBE2PARAM_st, ptr %43, i32 0, i32 1
  %45 = load ptr, ptr %44, align 8, !tbaa !92
  call void @X509_ALGOR_get0(ptr noundef %6, ptr noundef null, ptr noundef null, ptr noundef %45)
  %46 = load ptr, ptr %6, align 8, !tbaa !33
  %47 = call i32 @OBJ_obj2nid(ptr noundef %46)
  store i32 %47, ptr %10, align 4, !tbaa !4
  %48 = load ptr, ptr @bio_err, align 8, !tbaa !15
  %49 = load i32, ptr %4, align 4, !tbaa !4
  %50 = call ptr @OBJ_nid2ln(i32 noundef %49)
  %51 = load i32, ptr %10, align 4, !tbaa !4
  %52 = call ptr @OBJ_nid2sn(i32 noundef %51)
  %53 = call i32 (ptr, ptr, ...) @BIO_printf(ptr noundef %48, ptr noundef @.str.192, ptr noundef %50, ptr noundef %52)
  %54 = load i32, ptr %4, align 4, !tbaa !4
  %55 = icmp eq i32 %54, 69
  br i1 %55, label %56, label %94

56:                                               ; preds = %37
  call void @llvm.lifetime.start.p0(i64 8, ptr %11) #6
  store ptr null, ptr %11, align 8, !tbaa !41
  call void @llvm.lifetime.start.p0(i64 4, ptr %12) #6
  %57 = load i32, ptr %5, align 4, !tbaa !4
  %58 = icmp eq i32 %57, 16
  br i1 %58, label %59, label %63

59:                                               ; preds = %56
  %60 = load ptr, ptr %7, align 8, !tbaa !64
  %61 = call ptr @PBKDF2PARAM_it()
  %62 = call ptr @ASN1_item_unpack(ptr noundef %60, ptr noundef %61)
  store ptr %62, ptr %11, align 8, !tbaa !41
  br label %63

63:                                               ; preds = %59, %56
  %64 = load ptr, ptr %11, align 8, !tbaa !41
  %65 = icmp eq ptr %64, null
  br i1 %65, label %66, label %69

66:                                               ; preds = %63
  %67 = load ptr, ptr @bio_err, align 8, !tbaa !15
  %68 = call i32 @BIO_puts(ptr noundef %67, ptr noundef @.str.191)
  store i32 2, ptr %13, align 4
  br label %91

69:                                               ; preds = %63
  %70 = load ptr, ptr %11, align 8, !tbaa !41
  %71 = getelementptr inbounds nuw %struct.PBKDF2PARAM_st, ptr %70, i32 0, i32 3
  %72 = load ptr, ptr %71, align 8, !tbaa !50
  %73 = icmp eq ptr %72, null
  br i1 %73, label %74, label %75

74:                                               ; preds = %69
  store i32 163, ptr %12, align 4, !tbaa !4
  br label %81

75:                                               ; preds = %69
  %76 = load ptr, ptr %11, align 8, !tbaa !41
  %77 = getelementptr inbounds nuw %struct.PBKDF2PARAM_st, ptr %76, i32 0, i32 3
  %78 = load ptr, ptr %77, align 8, !tbaa !50
  call void @X509_ALGOR_get0(ptr noundef %6, ptr noundef null, ptr noundef null, ptr noundef %78)
  %79 = load ptr, ptr %6, align 8, !tbaa !33
  %80 = call i32 @OBJ_obj2nid(ptr noundef %79)
  store i32 %80, ptr %12, align 4, !tbaa !4
  br label %81

81:                                               ; preds = %75, %74
  %82 = load ptr, ptr @bio_err, align 8, !tbaa !15
  %83 = load ptr, ptr %11, align 8, !tbaa !41
  %84 = getelementptr inbounds nuw %struct.PBKDF2PARAM_st, ptr %83, i32 0, i32 1
  %85 = load ptr, ptr %84, align 8, !tbaa !43
  %86 = call i64 @ASN1_INTEGER_get(ptr noundef %85)
  %87 = load i32, ptr %12, align 4, !tbaa !4
  %88 = call ptr @OBJ_nid2sn(i32 noundef %87)
  %89 = call i32 (ptr, ptr, ...) @BIO_printf(ptr noundef %82, ptr noundef @.str.193, i64 noundef %86, ptr noundef %88)
  %90 = load ptr, ptr %11, align 8, !tbaa !41
  call void @PBKDF2PARAM_free(ptr noundef %90)
  store i32 0, ptr %13, align 4
  br label %91

91:                                               ; preds = %66, %81
  call void @llvm.lifetime.end.p0(i64 4, ptr %12) #6
  call void @llvm.lifetime.end.p0(i64 8, ptr %11) #6
  %92 = load i32, ptr %13, align 4
  switch i32 %92, label %136 [
    i32 0, label %93
  ]

93:                                               ; preds = %91
  br label %134

94:                                               ; preds = %37
  %95 = load i32, ptr %4, align 4, !tbaa !4
  %96 = icmp eq i32 %95, 973
  br i1 %96, label %97, label %133

97:                                               ; preds = %94
  call void @llvm.lifetime.start.p0(i64 8, ptr %14) #6
  store ptr null, ptr %14, align 8, !tbaa !93
  %98 = load i32, ptr %5, align 4, !tbaa !4
  %99 = icmp eq i32 %98, 16
  br i1 %99, label %100, label %104

100:                                              ; preds = %97
  %101 = load ptr, ptr %7, align 8, !tbaa !64
  %102 = call ptr @SCRYPT_PARAMS_it()
  %103 = call ptr @ASN1_item_unpack(ptr noundef %101, ptr noundef %102)
  store ptr %103, ptr %14, align 8, !tbaa !93
  br label %104

104:                                              ; preds = %100, %97
  %105 = load ptr, ptr %14, align 8, !tbaa !93
  %106 = icmp eq ptr %105, null
  br i1 %106, label %107, label %110

107:                                              ; preds = %104
  %108 = load ptr, ptr @bio_err, align 8, !tbaa !15
  %109 = call i32 @BIO_puts(ptr noundef %108, ptr noundef @.str.191)
  store i32 2, ptr %13, align 4
  br label %130

110:                                              ; preds = %104
  %111 = load ptr, ptr @bio_err, align 8, !tbaa !15
  %112 = load ptr, ptr %14, align 8, !tbaa !93
  %113 = getelementptr inbounds nuw %struct.SCRYPT_PARAMS_st, ptr %112, i32 0, i32 0
  %114 = load ptr, ptr %113, align 8, !tbaa !95
  %115 = call i32 @ASN1_STRING_length(ptr noundef %114)
  %116 = load ptr, ptr %14, align 8, !tbaa !93
  %117 = getelementptr inbounds nuw %struct.SCRYPT_PARAMS_st, ptr %116, i32 0, i32 1
  %118 = load ptr, ptr %117, align 8, !tbaa !97
  %119 = call i64 @ASN1_INTEGER_get(ptr noundef %118)
  %120 = load ptr, ptr %14, align 8, !tbaa !93
  %121 = getelementptr inbounds nuw %struct.SCRYPT_PARAMS_st, ptr %120, i32 0, i32 2
  %122 = load ptr, ptr %121, align 8, !tbaa !98
  %123 = call i64 @ASN1_INTEGER_get(ptr noundef %122)
  %124 = load ptr, ptr %14, align 8, !tbaa !93
  %125 = getelementptr inbounds nuw %struct.SCRYPT_PARAMS_st, ptr %124, i32 0, i32 3
  %126 = load ptr, ptr %125, align 8, !tbaa !99
  %127 = call i64 @ASN1_INTEGER_get(ptr noundef %126)
  %128 = call i32 (ptr, ptr, ...) @BIO_printf(ptr noundef %111, ptr noundef @.str.194, i32 noundef %115, i64 noundef %119, i64 noundef %123, i64 noundef %127)
  %129 = load ptr, ptr %14, align 8, !tbaa !93
  call void @SCRYPT_PARAMS_free(ptr noundef %129)
  store i32 0, ptr %13, align 4
  br label %130

130:                                              ; preds = %107, %110
  call void @llvm.lifetime.end.p0(i64 8, ptr %14) #6
  %131 = load i32, ptr %13, align 4
  switch i32 %131, label %136 [
    i32 0, label %132
  ]

132:                                              ; preds = %130
  br label %133

133:                                              ; preds = %132, %94
  br label %134

134:                                              ; preds = %133, %93
  %135 = load ptr, ptr %9, align 8, !tbaa !88
  call void @PBE2PARAM_free(ptr noundef %135)
  store i32 0, ptr %13, align 4
  br label %136

136:                                              ; preds = %34, %134, %130, %91
  call void @llvm.lifetime.end.p0(i64 4, ptr %10) #6
  call void @llvm.lifetime.end.p0(i64 8, ptr %9) #6
  %137 = load i32, ptr %13, align 4
  switch i32 %137, label %164 [
    i32 0, label %138
    i32 2, label %161
  ]

138:                                              ; preds = %136
  br label %160

139:                                              ; preds = %1
  %140 = load i32, ptr %5, align 4, !tbaa !4
  %141 = icmp eq i32 %140, 16
  br i1 %141, label %142, label %146

142:                                              ; preds = %139
  %143 = load ptr, ptr %7, align 8, !tbaa !64
  %144 = call ptr @PBEPARAM_it()
  %145 = call ptr @ASN1_item_unpack(ptr noundef %143, ptr noundef %144)
  store ptr %145, ptr %8, align 8, !tbaa !86
  br label %146

146:                                              ; preds = %142, %139
  %147 = load ptr, ptr %8, align 8, !tbaa !86
  %148 = icmp eq ptr %147, null
  br i1 %148, label %149, label %152

149:                                              ; preds = %146
  %150 = load ptr, ptr @bio_err, align 8, !tbaa !15
  %151 = call i32 @BIO_puts(ptr noundef %150, ptr noundef @.str.191)
  br label %161

152:                                              ; preds = %146
  %153 = load ptr, ptr @bio_err, align 8, !tbaa !15
  %154 = load ptr, ptr %8, align 8, !tbaa !86
  %155 = getelementptr inbounds nuw %struct.PBEPARAM_st, ptr %154, i32 0, i32 1
  %156 = load ptr, ptr %155, align 8, !tbaa !100
  %157 = call i64 @ASN1_INTEGER_get(ptr noundef %156)
  %158 = call i32 (ptr, ptr, ...) @BIO_printf(ptr noundef %153, ptr noundef @.str.195, i64 noundef %157)
  %159 = load ptr, ptr %8, align 8, !tbaa !86
  call void @PBEPARAM_free(ptr noundef %159)
  br label %160

160:                                              ; preds = %152, %138
  br label %161

161:                                              ; preds = %160, %136, %149
  %162 = load ptr, ptr @bio_err, align 8, !tbaa !15
  %163 = call i32 @BIO_puts(ptr noundef %162, ptr noundef @.str.178)
  store i32 1, ptr %2, align 4
  store i32 1, ptr %13, align 4
  br label %164

164:                                              ; preds = %161, %136
  call void @llvm.lifetime.end.p0(i64 8, ptr %8) #6
  call void @llvm.lifetime.end.p0(i64 8, ptr %7) #6
  call void @llvm.lifetime.end.p0(i64 8, ptr %6) #6
  call void @llvm.lifetime.end.p0(i64 4, ptr %5) #6
  call void @llvm.lifetime.end.p0(i64 4, ptr %4) #6
  %165 = load i32, ptr %2, align 4
  ret i32 %165
}