; Function Attrs: nounwind uwtable
define internal fastcc void @alg_print(ptr noundef %0) unnamed_addr #0 {
  %2 = alloca i32, align 4
  %3 = alloca ptr, align 8
  %4 = alloca ptr, align 8
  call void @llvm.lifetime.start.p0(i64 4, ptr nonnull %2) #6
  call void @llvm.lifetime.start.p0(i64 8, ptr nonnull %3) #6
  call void @llvm.lifetime.start.p0(i64 8, ptr nonnull %4) #6
  call void @X509_ALGOR_get0(ptr noundef nonnull %3, ptr noundef nonnull %2, ptr noundef nonnull %4, ptr noundef %0) #6
  %5 = load ptr, ptr %3, align 8, !tbaa !25
  %6 = call i32 @OBJ_obj2nid(ptr noundef %5) #6
  %7 = load ptr, ptr @bio_err, align 8, !tbaa !13
  %8 = call ptr @OBJ_nid2ln(i32 noundef %6) #6
  %9 = call i32 (ptr, ptr, ...) @BIO_printf(ptr noundef %7, ptr noundef nonnull @.str.190, ptr noundef %8) #6
  %10 = icmp eq i32 %6, 161
  %11 = load i32, ptr %2, align 4, !tbaa !36
  %12 = icmp eq i32 %11, 16
  br i1 %10, label %13, label %80

13:                                               ; preds = %1
  br i1 %12, label %14, label %.thread

14:                                               ; preds = %13
  %15 = load ptr, ptr %4, align 8, !tbaa !53
  %16 = call ptr @PBE2PARAM_it() #6
  %17 = call ptr @ASN1_item_unpack(ptr noundef %15, ptr noundef %16) #6
  %18 = icmp eq ptr %17, null
  br i1 %18, label %.thread, label %21

.thread:                                          ; preds = %13, %14
  %19 = load ptr, ptr @bio_err, align 8, !tbaa !13
  %20 = call i32 @BIO_puts(ptr noundef %19, ptr noundef nonnull @.str.191) #6
  br label %94

21:                                               ; preds = %14
  %22 = load ptr, ptr %17, align 8, !tbaa !54
  call void @X509_ALGOR_get0(ptr noundef nonnull %3, ptr noundef nonnull %2, ptr noundef nonnull %4, ptr noundef %22) #6
  %23 = load ptr, ptr %3, align 8, !tbaa !25
  %24 = call i32 @OBJ_obj2nid(ptr noundef %23) #6
  %25 = getelementptr inbounds nuw i8, ptr %17, i64 8
  %26 = load ptr, ptr %25, align 8, !tbaa !56
  call void @X509_ALGOR_get0(ptr noundef nonnull %3, ptr noundef null, ptr noundef null, ptr noundef %26) #6
  %27 = load ptr, ptr %3, align 8, !tbaa !25
  %28 = call i32 @OBJ_obj2nid(ptr noundef %27) #6
  %29 = load ptr, ptr @bio_err, align 8, !tbaa !13
  %30 = call ptr @OBJ_nid2ln(i32 noundef %24) #6
  %31 = call ptr @OBJ_nid2sn(i32 noundef %28) #6
  %32 = call i32 (ptr, ptr, ...) @BIO_printf(ptr noundef %29, ptr noundef nonnull @.str.192, ptr noundef %30, ptr noundef %31) #6
  switch i32 %24, label %79 [
    i32 69, label %33
    i32 973, label %56
  ]

33:                                               ; preds = %21
  %34 = load i32, ptr %2, align 4, !tbaa !36
  %35 = icmp eq i32 %34, 16
  br i1 %35, label %36, label %.thread44

36:                                               ; preds = %33
  %37 = load ptr, ptr %4, align 8, !tbaa !53
  %38 = call ptr @PBKDF2PARAM_it() #6
  %39 = call ptr @ASN1_item_unpack(ptr noundef %37, ptr noundef %38) #6
  %.not37 = icmp eq ptr %39, null
  br i1 %.not37, label %.thread44, label %42

.thread44:                                        ; preds = %36, %33
  %40 = load ptr, ptr @bio_err, align 8, !tbaa !13
  %41 = call i32 @BIO_puts(ptr noundef %40, ptr noundef nonnull @.str.191) #6
  br label %94

42:                                               ; preds = %36
  %43 = getelementptr inbounds nuw i8, ptr %39, i64 24
  %44 = load ptr, ptr %43, align 8, !tbaa !34
  %45 = icmp eq ptr %44, null
  br i1 %45, label %49, label %46

46:                                               ; preds = %42
  call void @X509_ALGOR_get0(ptr noundef nonnull %3, ptr noundef null, ptr noundef null, ptr noundef nonnull %44) #6
  %47 = load ptr, ptr %3, align 8, !tbaa !25
  %48 = call i32 @OBJ_obj2nid(ptr noundef %47) #6
  br label %49

49:                                               ; preds = %46, %42
  %.031 = phi i32 [ %48, %46 ], [ 163, %42 ]
  %50 = load ptr, ptr @bio_err, align 8, !tbaa !13
  %51 = getelementptr inbounds nuw i8, ptr %39, i64 8
  %52 = load ptr, ptr %51, align 8, !tbaa !27
  %53 = call i64 @ASN1_INTEGER_get(ptr noundef %52) #6
  %54 = call ptr @OBJ_nid2sn(i32 noundef %.031) #6
  %55 = call i32 (ptr, ptr, ...) @BIO_printf(ptr noundef %50, ptr noundef nonnull @.str.193, i64 noundef %53, ptr noundef %54) #6
  call void @PBKDF2PARAM_free(ptr noundef nonnull %39) #6
  br label %79

56:                                               ; preds = %21
  %57 = load i32, ptr %2, align 4, !tbaa !36
  %58 = icmp eq i32 %57, 16
  br i1 %58, label %59, label %.thread52

59:                                               ; preds = %56
  %60 = load ptr, ptr %4, align 8, !tbaa !53
  %61 = call ptr @SCRYPT_PARAMS_it() #6
  %62 = call ptr @ASN1_item_unpack(ptr noundef %60, ptr noundef %61) #6
  %.not = icmp eq ptr %62, null
  br i1 %.not, label %.thread52, label %65

.thread52:                                        ; preds = %59, %56
  %63 = load ptr, ptr @bio_err, align 8, !tbaa !13
  %64 = call i32 @BIO_puts(ptr noundef %63, ptr noundef nonnull @.str.191) #6
  br label %94

65:                                               ; preds = %59
  %66 = load ptr, ptr @bio_err, align 8, !tbaa !13
  %67 = load ptr, ptr %62, align 8, !tbaa !57
  %68 = call i32 @ASN1_STRING_length(ptr noundef %67) #6
  %69 = getelementptr inbounds nuw i8, ptr %62, i64 8
  %70 = load ptr, ptr %69, align 8, !tbaa !59
  %71 = call i64 @ASN1_INTEGER_get(ptr noundef %70) #6
  %72 = getelementptr inbounds nuw i8, ptr %62, i64 16
  %73 = load ptr, ptr %72, align 8, !tbaa !60
  %74 = call i64 @ASN1_INTEGER_get(ptr noundef %73) #6
  %75 = getelementptr inbounds nuw i8, ptr %62, i64 24
  %76 = load ptr, ptr %75, align 8, !tbaa !61
  %77 = call i64 @ASN1_INTEGER_get(ptr noundef %76) #6
  %78 = call i32 (ptr, ptr, ...) @BIO_printf(ptr noundef %66, ptr noundef nonnull @.str.194, i32 noundef %68, i64 noundef %71, i64 noundef %74, i64 noundef %77) #6
  call void @SCRYPT_PARAMS_free(ptr noundef nonnull %62) #6
  br label %79

79:                                               ; preds = %65, %49, %21
  call void @PBE2PARAM_free(ptr noundef nonnull %17) #6
  br label %94

80:                                               ; preds = %1
  br i1 %12, label %81, label %.thread55

81:                                               ; preds = %80
  %82 = load ptr, ptr %4, align 8, !tbaa !53
  %83 = call ptr @PBEPARAM_it() #6
  %84 = call ptr @ASN1_item_unpack(ptr noundef %82, ptr noundef %83) #6
  %85 = icmp eq ptr %84, null
  br i1 %85, label %.thread55, label %88

.thread55:                                        ; preds = %80, %81
  %86 = load ptr, ptr @bio_err, align 8, !tbaa !13
  %87 = call i32 @BIO_puts(ptr noundef %86, ptr noundef nonnull @.str.191) #6
  br label %94

88:                                               ; preds = %81
  %89 = load ptr, ptr @bio_err, align 8, !tbaa !13
  %90 = getelementptr inbounds nuw i8, ptr %84, i64 8
  %91 = load ptr, ptr %90, align 8, !tbaa !62
  %92 = call i64 @ASN1_INTEGER_get(ptr noundef %91) #6
  %93 = call i32 (ptr, ptr, ...) @BIO_printf(ptr noundef %89, ptr noundef nonnull @.str.195, i64 noundef %92) #6
  call void @PBEPARAM_free(ptr noundef nonnull %84) #6
  br label %94

94:                                               ; preds = %.thread55, %88, %.thread52, %.thread44, %79, %.thread
  %95 = load ptr, ptr @bio_err, align 8, !tbaa !13
  %96 = call i32 @BIO_puts(ptr noundef %95, ptr noundef nonnull @.str.178) #6
  call void @llvm.lifetime.end.p0(i64 8, ptr nonnull %4) #6
  call void @llvm.lifetime.end.p0(i64 8, ptr nonnull %3) #6
  call void @llvm.lifetime.end.p0(i64 4, ptr nonnull %2) #6
  ret void
}